(dp0
S'00C018'
p1
(dp2
S'mac'
p3
S'SHA'
p4
sS'enc'
p5
S'AES_128_CBC'
p6
sS'protocol'
p7
S'TLS'
p8
sS'name'
p9
S'TLS_ECDH_Anon_WITH_AES_128_CBC_SHA'
p10
sS'overall_strength'
p11
S'MITM'
p12
sS'au'
p13
S'Anon'
p14
sS'kx'
p15
S'ECDH'
p16
sS'bits'
p17
S'128'
p18
sS'enc_strength'
p19
S'HIGH'
p20
sS'kxau_strength'
p21
g12
ssS'00002A'
p22
(dp23
g3
S'MD5'
p24
sg5
S'RC2_CBC_40'
p25
sg7
g8
sg9
S'TLS_KRB5_EXPORT_WITH_RC2_CBC_40_MD5'
p26
sg11
S'EXPORT'
p27
sg13
S'KRB5_EXPORT'
p28
sg15
g28
sg17
S'40'
p29
sg19
g27
sg21
g27
ssS'00002B'
p30
(dp31
g3
g24
sg5
S'RC4_40'
p32
sg7
g8
sg9
S'TLS_KRB5_EXPORT_WITH_RC4_40_MD5'
p33
sg11
g27
sg13
g28
sg15
g28
sg17
g29
sg19
g27
sg21
g27
ssS'00002C'
p34
(dp35
g3
g4
sg5
S'NULL'
p36
sg7
g8
sg9
S'TLS_PSK_WITH_NULL_SHA'
p37
sg11
g36
sg13
S'PSK'
p38
sg15
g38
sg17
S'0'
p39
sg19
g36
sg21
g20
ssS'00002D'
p40
(dp41
g3
g4
sg5
g36
sg7
g8
sg9
S'TLS_DHE_PSK_WITH_NULL_SHA'
p42
sg11
g36
sg13
g38
sg15
S'DHE'
p43
sg17
g39
sg19
g36
sg21
g20
ssS'00002E'
p44
(dp45
g3
g4
sg5
g36
sg7
g8
sg9
S'TLS_RSA_PSK_WITH_NULL_SHA'
p46
sg11
g36
sg13
g38
sg15
S'RSA'
p47
sg17
g39
sg19
g36
sg21
g20
ssS'00002F'
p48
(dp49
g3
g4
sg5
g6
sg7
g8
sg9
S'TLS_RSA_WITH_AES_128_CBC_SHA'
p50
sg11
g20
sg13
g47
sg15
g47
sg17
g18
sg19
g20
sg21
g20
ssS'000095'
p51
(dp52
g3
g4
sg5
S'AES_256_CBC'
p53
sg7
g8
sg9
S'TLS_RSA_PSK_WITH_AES_256_CBC_SHA'
p54
sg11
g20
sg13
g38
sg15
g47
sg17
S'256'
p55
sg19
g20
sg21
g20
ssS'000094'
p56
(dp57
g3
g4
sg5
g6
sg7
g8
sg9
S'TLS_RSA_PSK_WITH_AES_128_CBC_SHA'
p58
sg11
g20
sg13
g38
sg15
g47
sg17
g18
sg19
g20
sg21
g20
ssS'000097'
p59
(dp60
g3
g4
sg5
S'SEED_CBC'
p61
sg7
g8
sg9
S'TLS_DH_DSS_WITH_SEED_CBC_SHA'
p62
sg11
g20
sg13
S'DSS'
p63
sg15
S'DH'
p64
sg17
g18
sg19
g20
sg21
g20
ssS'00C013'
p65
(dp66
g3
g4
sg5
g6
sg7
g8
sg9
S'TLS_ECDHE_RSA_WITH_AES_128_CBC_SHA'
p67
sg11
g20
sg13
g47
sg15
S'ECDHE'
p68
sg17
g18
sg19
g20
sg21
g20
ssS'000091'
p69
(dp70
g3
g4
sg5
g53
sg7
g8
sg9
S'TLS_DHE_PSK_WITH_AES_256_CBC_SHA'
p71
sg11
g20
sg13
g38
sg15
g43
sg17
g55
sg19
g20
sg21
g20
ssS'000090'
p72
(dp73
g3
g4
sg5
g6
sg7
g8
sg9
S'TLS_DHE_PSK_WITH_AES_128_CBC_SHA'
p74
sg11
g20
sg13
g38
sg15
g43
sg17
g18
sg19
g20
sg21
g20
ssS'000093'
p75
(dp76
g3
g4
sg5
S'3DES_EDE_CBC'
p77
sg7
g8
sg9
S'TLS_RSA_PSK_WITH_3DES_EDE_CBC_SHA'
p78
sg11
g20
sg13
g38
sg15
g47
sg17
S'168'
p79
sg19
g20
sg21
g20
ssS'000092'
p80
(dp81
g3
g4
sg5
S'RC4_128'
p82
sg7
g8
sg9
S'TLS_RSA_PSK_WITH_RC4_128_SHA'
p83
sg11
S'MEDIUM'
p84
sg13
g38
sg15
g47
sg17
g18
sg19
g84
sg21
g20
ssS'00C024'
p85
(dp86
g3
S'SHA384'
p87
sg5
g53
sg7
g8
sg9
S'TLS_ECDHE_ECDSA_WITH_AES_256_CBC_SHA384'
p88
sg11
g20
sg13
S'ECDSA'
p89
sg15
g68
sg17
g55
sg19
g20
sg21
g20
ssS'060040'
p90
(dp91
g3
g24
sg5
S'DES_64_CBC'
p92
sg7
S'SSL2'
p93
sg9
S'SSL2_DES_64_CBC_WITH_MD5'
p94
sg11
S'LOW'
p95
sg13
g47
sg15
g47
sg17
S'64'
p96
sg19
g95
sg21
g95
ssS'842840'
p97
(dp98
g3
S''
p99
sg5
g99
sg7
S'PCT'
p100
sg9
S'PCT_SSL_CIPHER_TYPE_2ND_HALF | PCT1_ENC_BITS_40 | PCT1_MAC_BITS_128'
p101
sg11
g95
sg13
g99
sg15
g99
sg17
g99
sg19
g95
sg21
g95
ssS'040080'
p102
(dp103
g3
g24
sg5
S'RC2_CBC_128_CBC'
p104
sg7
g93
sg9
S'SSL2_RC2_CBC_128_CBC_WITH_MD5'
p105
sg11
g95
sg13
g47
sg15
g47
sg17
g18
sg19
g95
sg21
g95
ssS'000020'
p106
(dp107
g3
g4
sg5
g82
sg7
g8
sg9
S'TLS_KRB5_WITH_RC4_128_SHA'
p108
sg11
g84
sg13
S'KRB5'
p109
sg15
g109
sg17
g18
sg19
g84
sg21
g20
ssS'000021'
p110
(dp111
g3
g4
sg5
S'IDEA_CBC'
p112
sg7
g8
sg9
S'TLS_KRB5_WITH_IDEA_CBC_SHA'
p113
sg11
g20
sg13
g109
sg15
g109
sg17
g18
sg19
g20
sg21
g20
ssS'000022'
p114
(dp115
g3
g24
sg5
S'DES_CBC'
p116
sg7
g8
sg9
S'TLS_KRB5_WITH_DES_CBC_MD5'
p117
sg11
g95
sg13
g109
sg15
g109
sg17
S'56'
p118
sg19
g95
sg21
g20
ssS'000023'
p119
(dp120
g3
g24
sg5
g77
sg7
g8
sg9
S'TLS_KRB5_WITH_3DES_EDE_CBC_MD5'
p121
sg11
g20
sg13
g109
sg15
g109
sg17
g79
sg19
g20
sg21
g20
ssS'000024'
p122
(dp123
g3
g24
sg5
g82
sg7
g8
sg9
S'TLS_KRB5_WITH_RC4_128_MD5'
p124
sg11
g84
sg13
g109
sg15
g109
sg17
g18
sg19
g84
sg21
g20
ssS'000025'
p125
(dp126
g3
g24
sg5
g112
sg7
g8
sg9
S'TLS_KRB5_WITH_IDEA_CBC_MD5'
p127
sg11
g20
sg13
g109
sg15
g109
sg17
g18
sg19
g20
sg21
g20
ssS'000026'
p128
(dp129
g3
g4
sg5
S'DES_CBC_40'
p130
sg7
g8
sg9
S'TLS_KRB5_EXPORT_WITH_DES_CBC_40_SHA'
p131
sg11
g27
sg13
g28
sg15
g28
sg17
g29
sg19
g27
sg21
g27
ssS'000027'
p132
(dp133
g3
g4
sg5
g25
sg7
g8
sg9
S'TLS_KRB5_EXPORT_WITH_RC2_CBC_40_SHA'
p134
sg11
g27
sg13
g28
sg15
g28
sg17
g29
sg19
g27
sg21
g27
ssS'00009E'
p135
(dp136
g3
S'SHA256'
p137
sg5
S'AES_128_GCM'
p138
sg7
g8
sg9
S'TLS_DHE_RSA_WITH_AES_128_GCM_SHA256'
p139
sg11
g20
sg13
g47
sg15
g43
sg17
g18
sg19
g20
sg21
g20
ssS'000029'
p140
(dp141
g3
g24
sg5
g130
sg7
g8
sg9
S'TLS_KRB5_EXPORT_WITH_DES_CBC_40_MD5'
p142
sg11
g27
sg13
g28
sg15
g28
sg17
g29
sg19
g27
sg21
g27
ssS'00C01B'
p143
(dp144
g3
g4
sg5
g77
sg7
g8
sg9
S'TLS_SRP_SHA_RSA_WITH_3DES_EDE_CBC_SHA'
p145
sg11
g20
sg13
g4
sg15
S'SRP'
p146
sg17
g79
sg19
g20
sg21
g20
ssS'00009F'
p147
(dp148
g3
g87
sg5
S'AES_256_GCM'
p149
sg7
g8
sg9
S'TLS_DHE_RSA_WITH_AES_256_GCM_SHA384'
p150
sg11
g20
sg13
g47
sg15
g43
sg17
g55
sg19
g20
sg21
g20
ssS'00009A'
p151
(dp152
g3
g4
sg5
g61
sg7
g8
sg9
S'TLS_DHE_RSA_WITH_SEED_CBC_SHA'
p153
sg11
g20
sg13
g47
sg15
g43
sg17
g18
sg19
g20
sg21
g20
ssS'00C01E'
p154
(dp155
g3
g4
sg5
g6
sg7
g8
sg9
S'TLS_SRP_SHA_RSA_WITH_AES_128_CBC_SHA'
p156
sg11
g20
sg13
g4
sg15
g146
sg17
g18
sg19
g20
sg21
g20
ssS'00009C'
p157
(dp158
g3
g137
sg5
g138
sg7
g8
sg9
S'TLS_RSA_WITH_AES_128_GCM_SHA256'
p159
sg11
g20
sg13
g47
sg15
g47
sg17
g18
sg19
g20
sg21
g20
ssS'00009B'
p160
(dp161
g3
g4
sg5
g61
sg7
g8
sg9
S'TLS_DH_Anon_WITH_SEED_CBC_SHA'
p162
sg11
g12
sg13
g14
sg15
g64
sg17
g18
sg19
g20
sg21
g12
ssS'000099'
p163
(dp164
g3
g4
sg5
g61
sg7
g8
sg9
S'TLS_DHE_DSS_WITH_SEED_CBC_SHA'
p165
sg11
g20
sg13
g63
sg15
g43
sg17
g18
sg19
g20
sg21
g20
ssS'820001'
p166
(dp167
g3
g99
sg5
g99
sg7
g100
sg9
S'PCT_SSL_EXCH_TYPE | PCT1_EXCH_RSA_PKCS1'
p168
sg11
g95
sg13
g99
sg15
g99
sg17
g99
sg19
g95
sg21
g95
ssS'000098'
p169
(dp170
g3
g4
sg5
g61
sg7
g8
sg9
S'TLS_DH_RSA_WITH_SEED_CBC_SHA'
p171
sg11
g20
sg13
g47
sg15
g64
sg17
g18
sg19
g20
sg21
g20
ssS'0000AE'
p172
(dp173
g3
g137
sg5
g6
sg7
g8
sg9
S'TLS_PSK_WITH_AES_128_CBC_SHA256'
p174
sg11
g20
sg13
g38
sg15
g38
sg17
g18
sg19
g20
sg21
g20
ssS'0000AD'
p175
(dp176
g3
g87
sg5
g149
sg7
g8
sg9
S'TLS_RSA_PSK_WITH_AES_256_GCM_SHA384'
p177
sg11
g20
sg13
g38
sg15
g47
sg17
g55
sg19
g20
sg21
g20
ssS'0000AF'
p178
(dp179
g3
g87
sg5
g53
sg7
g8
sg9
S'TLS_PSK_WITH_AES_256_CBC_SHA384'
p180
sg11
g20
sg13
g38
sg15
g38
sg17
g55
sg19
g20
sg21
g20
ssS'0000AA'
p181
(dp182
g3
g137
sg5
g138
sg7
g8
sg9
S'TLS_DHE_PSK_WITH_AES_128_GCM_SHA256'
p183
sg11
g20
sg13
g38
sg15
g43
sg17
g18
sg19
g20
sg21
g20
ssS'0000AC'
p184
(dp185
g3
g137
sg5
g138
sg7
g8
sg9
S'TLS_RSA_PSK_WITH_AES_128_GCM_SHA256'
p186
sg11
g20
sg13
g38
sg15
g47
sg17
g18
sg19
g20
sg21
g20
ssS'0000AB'
p187
(dp188
g3
g87
sg5
g149
sg7
g8
sg9
S'TLS_DHE_PSK_WITH_AES_256_GCM_SHA384'
p189
sg11
g20
sg13
g38
sg15
g43
sg17
g55
sg19
g20
sg21
g20
ssS'050080'
p190
(dp191
g3
g24
sg5
S'IDEA_128_CBC'
p192
sg7
g93
sg9
S'SSL2_IDEA_128_CBC_WITH_MD5'
p193
sg11
g95
sg13
g47
sg15
g47
sg17
g18
sg19
g20
sg21
g95
ssS'848040'
p194
(dp195
g3
g99
sg5
g99
sg7
g100
sg9
S'PCT_SSL_CIPHER_TYPE_2ND_HALF | PCT1_ENC_BITS_128 | PCT1_MAC_BITS_128'
p196
sg11
g95
sg13
g99
sg15
g99
sg17
g99
sg19
g95
sg21
g95
ssS'00C010'
p197
(dp198
g3
g4
sg5
g36
sg7
g8
sg9
S'TLS_ECDHE_RSA_WITH_NULL_SHA'
p199
sg11
g36
sg13
g47
sg15
g68
sg17
g39
sg19
g36
sg21
g20
ssS'00C011'
p200
(dp201
g3
g4
sg5
g82
sg7
g8
sg9
S'TLS_ECDHE_RSA_WITH_RC4_128_SHA'
p202
sg11
g84
sg13
g47
sg15
g68
sg17
g18
sg19
g84
sg21
g20
ssS'00004B'
p203
(dp204
g3
g4
sg5
g6
sg7
g8
sg9
S'TLS_ECDH_ECDSA_WITH_AES_128_CBC_SHA'
p205
sg11
g20
sg13
g89
sg15
g16
sg17
g18
sg19
g20
sg21
g20
ssS'00004C'
p206
(dp207
g3
g4
sg5
g53
sg7
g8
sg9
S'TLS_ECDH_ECDSA_WITH_AES_256_CBC_SHA'
p208
sg11
g20
sg13
g89
sg15
g16
sg17
g55
sg19
g20
sg21
g20
ssS'00004A'
p209
(dp210
g3
g4
sg5
g77
sg7
g8
sg9
S'TLS_ECDH_ECDSA_WITH_3DES_EDE_CBC_SHA'
p211
sg11
g20
sg13
g89
sg15
g16
sg17
g79
sg19
g20
sg21
g20
ssS'00C012'
p212
(dp213
g3
g4
sg5
g77
sg7
g8
sg9
S'TLS_ECDHE_RSA_WITH_3DES_EDE_CBC_SHA'
p214
sg11
g20
sg13
g47
sg15
g68
sg17
g79
sg19
g20
sg21
g20
ssS'010080'
p215
(dp216
g3
g24
sg5
g82
sg7
g93
sg9
S'SSL2_RC4_128_WITH_MD5'
p217
sg11
g95
sg13
g47
sg15
g47
sg17
g18
sg19
g84
sg21
g95
ssS'000096'
p218
(dp219
g3
g4
sg5
g61
sg7
g8
sg9
S'TLS_RSA_WITH_SEED_CBC_SHA'
p220
sg11
g20
sg13
g47
sg15
g47
sg17
g18
sg19
g20
sg21
g20
ssS'00C03A'
p221
(dp222
g3
g137
sg5
g36
sg7
g8
sg9
S'TLS_ECDHE_PSK_WITH_NULL_SHA256'
p223
sg11
g36
sg13
g38
sg15
g68
sg17
g39
sg19
g36
sg21
g20
ssS'00C014'
p224
(dp225
g3
g4
sg5
g53
sg7
g8
sg9
S'TLS_ECDHE_RSA_WITH_AES_256_CBC_SHA'
p226
sg11
g20
sg13
g47
sg15
g68
sg17
g55
sg19
g20
sg21
g20
ssS'00C015'
p227
(dp228
g3
g4
sg5
g36
sg7
g8
sg9
S'TLS_ECDH_Anon_WITH_NULL_SHA'
p229
sg11
g36
sg13
g14
sg15
g16
sg17
g39
sg19
g36
sg21
g12
ssS'00C016'
p230
(dp231
g3
g4
sg5
g82
sg7
g8
sg9
S'TLS_ECDH_Anon_WITH_RC4_128_SHA'
p232
sg11
g12
sg13
g14
sg15
g16
sg17
g18
sg19
g84
sg21
g12
ssS'00C023'
p233
(dp234
g3
g137
sg5
g6
sg7
g8
sg9
S'TLS_ECDHE_ECDSA_WITH_AES_128_CBC_SHA256'
p235
sg11
g20
sg13
g89
sg15
g68
sg17
g18
sg19
g20
sg21
g20
ssS'00C017'
p236
(dp237
g3
g4
sg5
g77
sg7
g8
sg9
S'TLS_ECDH_Anon_WITH_3DES_EDE_CBC_SHA'
p238
sg11
g12
sg13
g14
sg15
g16
sg17
g79
sg19
g20
sg21
g12
ssS'00C019'
p239
(dp240
g3
g4
sg5
g53
sg7
g8
sg9
S'TLS_ECDH_Anon_WITH_AES_256_CBC_SHA'
p241
sg11
g12
sg13
g14
sg15
g16
sg17
g55
sg19
g20
sg21
g12
ssS'000048'
p242
(dp243
g3
g4
sg5
g82
sg7
g8
sg9
S'TLS_ECDH_ECDSA_WITH_RC4_128_SHA'
p244
sg11
g84
sg13
g89
sg15
g16
sg17
g18
sg19
g84
sg21
g20
ssS'000049'
p245
(dp246
g3
g4
sg5
g116
sg7
g8
sg9
S'TLS_ECDH_ECDSA_WITH_DES_CBC_SHA'
p247
sg11
g95
sg13
g89
sg15
g16
sg17
g118
sg19
g95
sg21
g20
ssS'000042'
p248
(dp249
g3
g4
sg5
S'CAMELLIA_128_CBC'
p250
sg7
g8
sg9
S'TLS_DH_DSS_WITH_CAMELLIA_128_CBC_SHA'
p251
sg11
g20
sg13
g63
sg15
g64
sg17
g18
sg19
g20
sg21
g20
ssS'000043'
p252
(dp253
g3
g4
sg5
g250
sg7
g8
sg9
S'TLS_DH_RSA_WITH_CAMELLIA_128_CBC_SHA'
p254
sg11
g20
sg13
g47
sg15
g64
sg17
g18
sg19
g20
sg21
g20
ssS'000040'
p255
(dp256
g3
g137
sg5
g6
sg7
g8
sg9
S'TLS_DHE_DSS_WITH_AES_128_CBC_SHA256'
p257
sg11
g20
sg13
g63
sg15
g43
sg17
g18
sg19
g20
sg21
g20
ssS'000041'
p258
(dp259
g3
g4
sg5
g250
sg7
g8
sg9
S'TLS_RSA_WITH_CAMELLIA_128_CBC_SHA'
p260
sg11
g20
sg13
g47
sg15
g47
sg17
g18
sg19
g20
sg21
g20
ssS'000046'
p261
(dp262
g3
g4
sg5
g250
sg7
g8
sg9
S'TLS_DH_Anon_WITH_CAMELLIA_128_CBC_SHA'
p263
sg11
g12
sg13
g14
sg15
g64
sg17
g18
sg19
g20
sg21
g12
ssS'000047'
p264
(dp265
g3
g4
sg5
g36
sg7
g8
sg9
S'TLS_ECDH_ECDSA_WITH_NULL_SHA'
p266
sg11
g36
sg13
g89
sg15
g16
sg17
g39
sg19
g36
sg21
g20
ssS'000044'
p267
(dp268
g3
g4
sg5
g250
sg7
g8
sg9
S'TLS_DHE_DSS_WITH_CAMELLIA_128_CBC_SHA'
p269
sg11
g20
sg13
g63
sg15
g43
sg17
g18
sg19
g20
sg21
g20
ssS'000045'
p270
(dp271
g3
g4
sg5
g250
sg7
g8
sg9
S'TLS_DHE_RSA_WITH_CAMELLIA_128_CBC_SHA'
p272
sg11
g20
sg13
g47
sg15
g43
sg17
g18
sg19
g20
sg21
g20
ssS'0000A5'
p273
(dp274
g3
g87
sg5
g149
sg7
g8
sg9
S'TLS_DH_DSS_WITH_AES_256_GCM_SHA384'
p275
sg11
g20
sg13
g63
sg15
g64
sg17
g55
sg19
g20
sg21
g20
ssS'0000A4'
p276
(dp277
g3
g137
sg5
g138
sg7
g8
sg9
S'TLS_DH_DSS_WITH_AES_128_GCM_SHA256'
p278
sg11
g20
sg13
g63
sg15
g64
sg17
g18
sg19
g20
sg21
g20
ssS'0000A7'
p279
(dp280
g3
g87
sg5
g149
sg7
g8
sg9
S'TLS_DH_Anon_WITH_AES_256_GCM_SHA384'
p281
sg11
g12
sg13
g14
sg15
g64
sg17
g55
sg19
g20
sg21
g12
ssS'0000A6'
p282
(dp283
g3
g137
sg5
g138
sg7
g8
sg9
S'TLS_DH_Anon_WITH_AES_128_GCM_SHA256'
p284
sg11
g20
sg13
g14
sg15
g64
sg17
g18
sg19
g20
sg21
g12
ssS'0000A1'
p285
(dp286
g3
g87
sg5
g149
sg7
g8
sg9
S'TLS_DH_RSA_WITH_AES_256_GCM_SHA384'
p287
sg11
g20
sg13
g47
sg15
g64
sg17
g55
sg19
g20
sg21
g20
ssS'0000A0'
p288
(dp289
g3
g137
sg5
g138
sg7
g8
sg9
S'TLS_DH_RSA_WITH_AES_128_GCM_SHA256'
p290
sg11
g20
sg13
g47
sg15
g64
sg17
g18
sg19
g20
sg21
g20
ssS'0000A3'
p291
(dp292
g3
g87
sg5
g149
sg7
g8
sg9
S'TLS_DHE_DSS_WITH_AES_256_GCM_SHA384'
p293
sg11
g20
sg13
g63
sg15
g43
sg17
g55
sg19
g20
sg21
g20
ssS'0000A2'
p294
(dp295
g3
g137
sg5
g138
sg7
g8
sg9
S'TLS_DHE_DSS_WITH_AES_128_GCM_SHA256'
p296
sg11
g20
sg13
g63
sg15
g43
sg17
g18
sg19
g20
sg21
g20
ssS'0000A9'
p297
(dp298
g3
g87
sg5
g149
sg7
g8
sg9
S'TLS_PSK_WITH_AES_256_GCM_SHA384'
p299
sg11
g20
sg13
g38
sg15
g38
sg17
g55
sg19
g20
sg21
g20
ssS'0000A8'
p300
(dp301
g3
g137
sg5
g138
sg7
g8
sg9
S'TLS_PSK_WITH_AES_128_GCM_SHA256'
p302
sg11
g20
sg13
g38
sg15
g38
sg17
g18
sg19
g20
sg21
g20
ssS'030080'
p303
(dp304
g3
g24
sg5
g104
sg7
g93
sg9
g105
sg11
g95
sg13
g47
sg15
g47
sg17
g18
sg19
g95
sg21
g95
ssS'00006D'
p305
(dp306
g3
g137
sg5
g53
sg7
g8
sg9
S'TLS_DH_Anon_WITH_AES_256_CBC_SHA256'
p307
sg11
g12
sg13
g14
sg15
g64
sg17
g55
sg19
g20
sg21
g12
ssS'00006A'
p308
(dp309
g3
g137
sg5
g53
sg7
g8
sg9
S'TLS_DHE_DSS_WITH_AES_256_CBC_SHA256'
p310
sg11
g20
sg13
g63
sg15
g43
sg17
g55
sg19
g20
sg21
g20
ssS'00006B'
p311
(dp312
g3
g137
sg5
g53
sg7
g8
sg9
S'TLS_DHE_RSA_WITH_AES_256_CBC_SHA256'
p313
sg11
g20
sg13
g47
sg15
g43
sg17
g55
sg19
g20
sg21
g20
ssS'00006C'
p314
(dp315
g3
g137
sg5
g6
sg7
g8
sg9
S'TLS_DH_Anon_WITH_AES_128_CBC_SHA256'
p316
sg11
g12
sg13
g14
sg15
g64
sg17
g18
sg19
g20
sg21
g12
ssS'080080'
p317
(dp318
g3
g24
sg5
S'RC4_64'
p319
sg7
g93
sg9
S'SSL2_RC4_64_WITH_MD5'
p320
sg11
g95
sg13
g47
sg15
g47
sg17
g96
sg19
g95
sg21
g95
ssS'0700C0'
p321
(dp322
g3
g24
sg5
S'DES_192_EDE3_CBC'
p323
sg7
g93
sg9
S'SSL2_DES_192_EDE3_CBC_WITH_MD5'
p324
sg11
g95
sg13
g47
sg15
g47
sg17
S'192'
p325
sg19
g20
sg21
g95
ssS'000064'
p326
(dp327
g3
g4
sg5
S'RC4_56'
p328
sg7
g8
sg9
S'TLS_RSA_EXPORT1024_WITH_RC4_56_SHA'
p329
sg11
g27
sg13
S'RSA_EXPORT1024'
p330
sg15
g330
sg17
g118
sg19
g27
sg21
g27
ssS'000065'
p331
(dp332
g3
g4
sg5
g328
sg7
g8
sg9
S'TLS_DHE_DSS_EXPORT1024_WITH_RC4_56_SHA'
p333
sg11
g27
sg13
g63
sg15
g43
sg17
g118
sg19
g27
sg21
g20
ssS'000066'
p334
(dp335
g3
g4
sg5
g82
sg7
g8
sg9
S'TLS_DHE_DSS_WITH_RC4_128_SHA'
p336
sg11
g84
sg13
g63
sg15
g43
sg17
g18
sg19
g84
sg21
g20
ssS'000067'
p337
(dp338
g3
g137
sg5
g6
sg7
g8
sg9
S'TLS_DHE_RSA_WITH_AES_128_CBC_SHA256'
p339
sg11
g20
sg13
g47
sg15
g43
sg17
g18
sg19
g20
sg21
g20
ssS'000060'
p340
(dp341
g3
g24
sg5
g328
sg7
g8
sg9
S'TLS_RSA_EXPORT1024_WITH_RC4_56_MD5'
p342
sg11
g27
sg13
g330
sg15
g330
sg17
g118
sg19
g27
sg21
g27
ssS'000061'
p343
(dp344
g3
g24
sg5
S'RC2_CBC_56'
p345
sg7
g8
sg9
S'TLS_RSA_EXPORT1024_WITH_RC2_CBC_56_MD5'
p346
sg11
g27
sg13
g330
sg15
g330
sg17
g118
sg19
g27
sg21
g27
ssS'000062'
p347
(dp348
g3
g4
sg5
g116
sg7
g8
sg9
S'TLS_RSA_EXPORT1024_WITH_DES_CBC_SHA'
p349
sg11
g27
sg13
g330
sg15
g330
sg17
g118
sg19
g95
sg21
g27
ssS'000063'
p350
(dp351
g3
g4
sg5
g116
sg7
g8
sg9
S'TLS_DHE_DSS_EXPORT1024_WITH_DES_CBC_SHA'
p352
sg11
g95
sg13
g63
sg15
g43
sg17
g118
sg19
g95
sg21
g20
ssS'000068'
p353
(dp354
g3
g137
sg5
g53
sg7
g8
sg9
S'TLS_DH_DSS_WITH_AES_256_CBC_SHA256'
p355
sg11
g20
sg13
g63
sg15
g64
sg17
g55
sg19
g20
sg21
g20
ssS'000069'
p356
(dp357
g3
g137
sg5
g53
sg7
g8
sg9
S'TLS_DH_RSA_WITH_AES_256_CBC_SHA256'
p358
sg11
g20
sg13
g47
sg15
g64
sg17
g55
sg19
g20
sg21
g20
ssS'00FEFF'
p359
(dp360
g3
g4
sg5
g77
sg7
S'SSL'
p361
sg9
S'SSL_RSA_FIPS_WITH_3DES_EDE_CBC_SHA'
p362
sg11
g20
sg13
S'RSA_FIPS'
p363
sg15
g363
sg17
g79
sg19
g20
sg21
g20
ssS'00FEFE'
p364
(dp365
g3
g4
sg5
g116
sg7
g361
sg9
S'SSL_RSA_FIPS_WITH_DES_CBC_SHA'
p366
sg11
g95
sg13
g363
sg15
g363
sg17
g118
sg19
g95
sg21
g20
ssS'810003'
p367
(dp368
g3
g99
sg5
g99
sg7
g100
sg9
S'PCT_SSL_HASH_TYPE | PCT1_HASH_SHA'
p369
sg11
g95
sg13
g99
sg15
g99
sg17
g99
sg19
g95
sg21
g95
ssS'810001'
p370
(dp371
g3
g99
sg5
g99
sg7
g100
sg9
S'PCT_SSL_HASH_TYPE | PCT1_HASH_MD5'
p372
sg11
g95
sg13
g99
sg15
g99
sg17
g99
sg19
g95
sg21
g95
ssS'00C039'
p373
(dp374
g3
S'SHA '
p375
sg5
g36
sg7
g8
sg9
S'TLS_ECDHE_PSK_WITH_NULL_SHA '
p376
sg11
g36
sg13
g38
sg15
g68
sg17
g39
sg19
g36
sg21
g20
ssS'00008F'
p377
(dp378
g3
g4
sg5
g77
sg7
g8
sg9
S'TLS_DHE_PSK_WITH_3DES_EDE_CBC_SHA'
p379
sg11
g20
sg13
g38
sg15
g43
sg17
g79
sg19
g20
sg21
g20
ssS'00C02D'
p380
(dp381
g3
g137
sg5
g138
sg7
g8
sg9
S'TLS_ECDH_ECDSA_WITH_AES_128_GCM_SHA256'
p382
sg11
g20
sg13
g89
sg15
g16
sg17
g18
sg19
g20
sg21
g20
ssS'00008D'
p383
(dp384
g3
g4
sg5
g53
sg7
g8
sg9
S'TLS_PSK_WITH_AES_256_CBC_SHA'
p385
sg11
g20
sg13
g38
sg15
g38
sg17
g55
sg19
g20
sg21
g20
ssS'00008E'
p386
(dp387
g3
g4
sg5
g82
sg7
g8
sg9
S'TLS_DHE_PSK_WITH_RC4_128_SHA'
p388
sg11
g84
sg13
g38
sg15
g43
sg17
g18
sg19
g84
sg21
g20
ssS'00008B'
p389
(dp390
g3
g4
sg5
g77
sg7
g8
sg9
S'TLS_PSK_WITH_3DES_EDE_CBC_SHA'
p391
sg11
g20
sg13
g38
sg15
g38
sg17
g79
sg19
g20
sg21
g20
ssS'00008C'
p392
(dp393
g3
g4
sg5
g6
sg7
g8
sg9
S'TLS_PSK_WITH_AES_128_CBC_SHA'
p394
sg11
g20
sg13
g38
sg15
g38
sg17
g18
sg19
g20
sg21
g20
ssS'00C02C'
p395
(dp396
g3
g87
sg5
g149
sg7
g8
sg9
S'TLS_ECDHE_ECDSA_WITH_AES_256_GCM_SHA384'
p397
sg11
g20
sg13
g89
sg15
g68
sg17
g55
sg19
g20
sg21
g20
ssS'00008A'
p398
(dp399
g3
g4
sg5
g82
sg7
g8
sg9
S'TLS_PSK_WITH_RC4_128_SHA'
p400
sg11
g84
sg13
g38
sg15
g38
sg17
g18
sg19
g84
sg21
g20
ssS'8F8001'
p401
(dp402
g3
g99
sg5
g99
sg7
g100
sg9
S'PCT_SSL_COMPAT | PCT_VERSION_1'
p403
sg11
g95
sg13
g99
sg15
g99
sg17
g99
sg19
g95
sg21
g95
ssS'00C029'
p404
(dp405
g3
g137
sg5
g6
sg7
g8
sg9
S'TLS_ECDH_RSA_WITH_AES_128_CBC_SHA256'
p406
sg11
g20
sg13
g47
sg15
g16
sg17
g18
sg19
g20
sg21
g20
ssS'00C028'
p407
(dp408
g3
g87
sg5
g53
sg7
g8
sg9
S'TLS_ECDHE_RSA_WITH_AES_256_CBC_SHA384'
p409
sg11
g20
sg13
g47
sg15
g68
sg17
g55
sg19
g20
sg21
g20
ssS'000088'
p410
(dp411
g3
g4
sg5
S'CAMELLIA_256_CBC'
p412
sg7
g8
sg9
S'TLS_DHE_RSA_WITH_CAMELLIA_256_CBC_SHA'
p413
sg11
g20
sg13
g47
sg15
g43
sg17
g55
sg19
g20
sg21
g20
ssS'000089'
p414
(dp415
g3
g4
sg5
g412
sg7
g8
sg9
S'TLS_DH_Anon_WITH_CAMELLIA_256_CBC_SHA'
p416
sg11
g12
sg13
g14
sg15
g64
sg17
g55
sg19
g20
sg21
g12
ssS'000086'
p417
(dp418
g3
g4
sg5
g412
sg7
g8
sg9
S'TLS_DH_RSA_WITH_CAMELLIA_256_CBC_SHA'
p419
sg11
g20
sg13
g47
sg15
g64
sg17
g55
sg19
g20
sg21
g20
ssS'000087'
p420
(dp421
g3
g4
sg5
g412
sg7
g8
sg9
S'TLS_DHE_DSS_WITH_CAMELLIA_256_CBC_SHA'
p422
sg11
g20
sg13
g63
sg15
g43
sg17
g55
sg19
g20
sg21
g20
ssS'000084'
p423
(dp424
g3
g4
sg5
g412
sg7
g8
sg9
S'TLS_RSA_WITH_CAMELLIA_256_CBC_SHA'
p425
sg11
g20
sg13
g47
sg15
g47
sg17
g55
sg19
g20
sg21
g20
ssS'000085'
p426
(dp427
g3
g4
sg5
g412
sg7
g8
sg9
S'TLS_DH_DSS_WITH_CAMELLIA_256_CBC_SHA'
p428
sg11
g20
sg13
g63
sg15
g64
sg17
g55
sg19
g20
sg21
g20
ssS'000082'
p429
(dp430
g3
S'HMAC_GOSTR3411'
p431
sg5
g36
sg7
g8
sg9
S'TLS_GOSTR341094_WITH_NULL_GOSTR3411'
p432
sg11
g36
sg13
S'VKO GOST R 34.10-94 '
p433
sg15
g433
sg17
g39
sg19
g36
sg21
g20
ssS'000083'
p434
(dp435
g3
g431
sg5
g36
sg7
g8
sg9
S'TLS_GOSTR341001_WITH_NULL_GOSTR3411'
p436
sg11
g36
sg13
S'VKO GOST R 34.10-2001'
p437
sg15
g437
sg17
g39
sg19
g36
sg21
g20
ssS'000080'
p438
(dp439
g3
S'IMIT_GOST28147'
p440
sg5
S'GOST28147'
p441
sg7
g8
sg9
S'TLS_GOSTR341094_WITH_28147_CNT_IMIT'
p442
sg11
g20
sg13
S'VKO GOST R 34.10-94'
p443
sg15
g443
sg17
g55
sg19
g20
sg21
g20
ssS'000081'
p444
(dp445
g3
g440
sg5
g441
sg7
g8
sg9
S'TLS_GOSTR341001_WITH_28147_CNT_IMIT'
p446
sg11
g20
sg13
g437
sg15
g437
sg17
g55
sg19
g20
sg21
g20
ssS'800003'
p447
(dp448
g3
g99
sg5
g99
sg7
g100
sg9
S'PCT_SSL_CERT_TYPE | PCT1_CERT_X509_CHAIN'
p449
sg11
g95
sg13
g99
sg15
g99
sg17
g99
sg19
g95
sg21
g95
ssS'00C02E'
p450
(dp451
g3
g87
sg5
g149
sg7
g8
sg9
S'TLS_ECDH_ECDSA_WITH_AES_256_GCM_SHA384'
p452
sg11
g20
sg13
g89
sg15
g16
sg17
g55
sg19
g20
sg21
g20
ssS'00C02F'
p453
(dp454
g3
g137
sg5
g138
sg7
g8
sg9
S'TLS_ECDHE_RSA_WITH_AES_128_GCM_SHA256'
p455
sg11
g20
sg13
g47
sg15
g68
sg17
g18
sg19
g20
sg21
g20
ssS'00C02A'
p456
(dp457
g3
g87
sg5
g53
sg7
g8
sg9
S'TLS_ECDH_RSA_WITH_AES_256_CBC_SHA384'
p458
sg11
g20
sg13
g47
sg15
g16
sg17
g55
sg19
g20
sg21
g20
ssS'00C02B'
p459
(dp460
g3
g137
sg5
g138
sg7
g8
sg9
S'TLS_ECDHE_ECDSA_WITH_AES_128_GCM_SHA256'
p461
sg11
g20
sg13
g89
sg15
g68
sg17
g18
sg19
g20
sg21
g20
ssS'000015'
p462
(dp463
g3
g4
sg5
g116
sg7
g8
sg9
S'TLS_DHE_RSA_WITH_DES_CBC_SHA'
p464
sg11
g95
sg13
g47
sg15
g43
sg17
g118
sg19
g95
sg21
g20
ssS'000014'
p465
(dp466
g3
g4
sg5
S'DES40_CBC'
p467
sg7
g8
sg9
S'TLS_DHE_RSA_EXPORT_WITH_DES40_CBC_SHA'
p468
sg11
g27
sg13
g47
sg15
g43
sg17
g29
sg19
g27
sg21
g20
ssS'000017'
p469
(dp470
g3
g24
sg5
g32
sg7
g8
sg9
S'TLS_DH_Anon_EXPORT_WITH_RC4_40_MD5'
p471
sg11
g27
sg13
g14
sg15
g64
sg17
g29
sg19
g27
sg21
g12
ssS'000016'
p472
(dp473
g3
g4
sg5
g77
sg7
g8
sg9
S'TLS_DHE_RSA_WITH_3DES_EDE_CBC_SHA'
p474
sg11
g20
sg13
g47
sg15
g43
sg17
g79
sg19
g20
sg21
g20
ssS'000011'
p475
(dp476
g3
g4
sg5
g467
sg7
g8
sg9
S'TLS_DHE_DSS_EXPORT_WITH_DES40_CBC_SHA'
p477
sg11
g27
sg13
g63
sg15
g43
sg17
g29
sg19
g27
sg21
g20
ssS'000010'
p478
(dp479
g3
g4
sg5
g77
sg7
g8
sg9
S'TLS_DH_RSA_WITH_3DES_EDE_CBC_SHA'
p480
sg11
g20
sg13
g47
sg15
g64
sg17
g79
sg19
g20
sg21
g20
ssS'000013'
p481
(dp482
g3
g4
sg5
g77
sg7
g8
sg9
S'TLS_DHE_DSS_WITH_3DES_EDE_CBC_SHA'
p483
sg11
g20
sg13
g63
sg15
g43
sg17
g79
sg19
g20
sg21
g20
ssS'000012'
p484
(dp485
g3
g4
sg5
g116
sg7
g8
sg9
S'TLS_DHE_DSS_WITH_DES_CBC_SHA'
p486
sg11
g95
sg13
g63
sg15
g43
sg17
g118
sg19
g95
sg21
g20
ssS'000019'
p487
(dp488
g3
g4
sg5
g467
sg7
g8
sg9
S'TLS_DH_Anon_EXPORT_WITH_DES40_CBC_SHA'
p489
sg11
g27
sg13
g14
sg15
g64
sg17
g29
sg19
g27
sg21
g12
ssS'000018'
p490
(dp491
g3
g24
sg5
g82
sg7
g8
sg9
S'TLS_DH_Anon_WITH_RC4_128_MD5'
p492
sg11
g12
sg13
g14
sg15
g64
sg17
g18
sg19
g84
sg21
g12
ssS'00C00F'
p493
(dp494
g3
g4
sg5
g53
sg7
g8
sg9
S'TLS_ECDH_RSA_WITH_AES_256_CBC_SHA'
p495
sg11
g20
sg13
g47
sg15
g16
sg17
g55
sg19
g20
sg21
g20
ssS'00C00E'
p496
(dp497
g3
g4
sg5
g6
sg7
g8
sg9
S'TLS_ECDH_RSA_WITH_AES_128_CBC_SHA'
p498
sg11
g20
sg13
g47
sg15
g16
sg17
g18
sg19
g20
sg21
g20
ssS'00C00D'
p499
(dp500
g3
g4
sg5
g77
sg7
g8
sg9
S'TLS_ECDH_RSA_WITH_3DES_EDE_CBC_SHA'
p501
sg11
g20
sg13
g47
sg15
g16
sg17
g79
sg19
g20
sg21
g20
ssS'00C00C'
p502
(dp503
g3
g4
sg5
g82
sg7
g8
sg9
S'TLS_ECDH_RSA_WITH_RC4_128_SHA'
p504
sg11
g84
sg13
g47
sg15
g16
sg17
g18
sg19
g84
sg21
g20
ssS'00C00B'
p505
(dp506
g3
g4
sg5
g36
sg7
g8
sg9
S'TLS_ECDH_RSA_WITH_NULL_SHA'
p507
sg11
g36
sg13
g47
sg15
g16
sg17
g39
sg19
g36
sg21
g20
ssS'00C00A'
p508
(dp509
g3
g4
sg5
g53
sg7
g8
sg9
S'TLS_ECDHE_ECDSA_WITH_AES_256_CBC_SHA'
p510
sg11
g20
sg13
g89
sg15
g68
sg17
g55
sg19
g20
sg21
g20
ssS'00C007'
p511
(dp512
g3
g4
sg5
g82
sg7
g8
sg9
S'TLS_ECDHE_ECDSA_WITH_RC4_128_SHA'
p513
sg11
g84
sg13
g89
sg15
g68
sg17
g18
sg19
g84
sg21
g20
ssS'00C006'
p514
(dp515
g3
g4
sg5
g36
sg7
g8
sg9
S'TLS_ECDHE_ECDSA_WITH_NULL_SHA'
p516
sg11
g36
sg13
g89
sg15
g68
sg17
g39
sg19
g36
sg21
g20
ssS'00C005'
p517
(dp518
g3
g4
sg5
g53
sg7
g8
sg9
g208
sg11
g20
sg13
g89
sg15
g16
sg17
g55
sg19
g20
sg21
g20
ssS'00C004'
p519
(dp520
g3
g4
sg5
g6
sg7
g8
sg9
g205
sg11
g20
sg13
g89
sg15
g16
sg17
g18
sg19
g20
sg21
g20
ssS'00C003'
p521
(dp522
g3
g4
sg5
g77
sg7
g8
sg9
g211
sg11
g20
sg13
g89
sg15
g16
sg17
g79
sg19
g20
sg21
g20
ssS'00C002'
p523
(dp524
g3
g4
sg5
g82
sg7
g8
sg9
g244
sg11
g84
sg13
g89
sg15
g16
sg17
g18
sg19
g84
sg21
g20
ssS'00C001'
p525
(dp526
g3
g4
sg5
g36
sg7
g8
sg9
g266
sg11
g36
sg13
g89
sg15
g16
sg17
g39
sg19
g36
sg21
g20
ssS'00C009'
p527
(dp528
g3
g4
sg5
g6
sg7
g8
sg9
S'TLS_ECDHE_ECDSA_WITH_AES_128_CBC_SHA'
p529
sg11
g20
sg13
g89
sg15
g68
sg17
g18
sg19
g20
sg21
g20
ssS'00C008'
p530
(dp531
g3
g4
sg5
g77
sg7
g8
sg9
S'TLS_ECDHE_ECDSA_WITH_3DES_EDE_CBC_SHA'
p532
sg11
g20
sg13
g89
sg15
g68
sg17
g79
sg19
g20
sg21
g20
ssS'00001E'
p533
(dp534
g3
g4
sg5
g116
sg7
g8
sg9
S'TLS_KRB5_WITH_DES_CBC_SHA'
p535
sg11
g95
sg13
g109
sg15
g109
sg17
g118
sg19
g95
sg21
g20
ssS'00001D'
p536
(dp537
g3
g4
sg5
S'FORTEZZA_CBC'
p538
sg7
g361
sg9
S'SSL_FORTEZZA_KEA_WITH_FORTEZZA_CBC_SHA'
p539
sg11
g20
sg13
S'KEA'
p540
sg15
S'FORTEZZA'
p541
sg17
S'80'
p542
sg19
g20
sg21
g20
ssS'00001F'
p543
(dp544
g3
g4
sg5
g77
sg7
g8
sg9
S'TLS_KRB5_WITH_3DES_EDE_CBC_SHA'
p545
sg11
g20
sg13
g109
sg15
g109
sg17
g79
sg19
g20
sg21
g20
ssS'00001A'
p546
(dp547
g3
g4
sg5
g116
sg7
g8
sg9
S'TLS_DH_Anon_WITH_DES_CBC_SHA'
p548
sg11
g12
sg13
g14
sg15
g64
sg17
g118
sg19
g95
sg21
g12
ssS'00001C'
p549
(dp550
g3
g4
sg5
g36
sg7
g361
sg9
S'SSL_FORTEZZA_KEA_WITH_NULL_SHA'
p551
sg11
g36
sg13
g540
sg15
g541
sg17
g39
sg19
g36
sg21
g20
ssS'00001B'
p552
(dp553
g3
g4
sg5
g77
sg7
g8
sg9
S'TLS_DH_Anon_WITH_3DES_EDE_CBC_SHA'
p554
sg11
g12
sg13
g14
sg15
g64
sg17
g79
sg19
g20
sg21
g12
ssS'000028'
p555
(dp556
g3
g4
sg5
g32
sg7
g8
sg9
S'TLS_KRB5_EXPORT_WITH_RC4_40_SHA'
p557
sg11
g27
sg13
g28
sg15
g28
sg17
g29
sg19
g27
sg21
g27
ssS'00009D'
p558
(dp559
g3
g87
sg5
g149
sg7
g8
sg9
S'TLS_RSA_WITH_AES_256_GCM_SHA384'
p560
sg11
g20
sg13
g47
sg15
g47
sg17
g55
sg19
g20
sg21
g20
ssS'00C01C'
p561
(dp562
g3
g4
sg5
g77
sg7
g8
sg9
S'TLS_SRP_SHA_DSS_WITH_3DES_EDE_CBC_SHA'
p563
sg11
g20
sg13
g4
sg15
g146
sg17
g79
sg19
g20
sg21
g20
ssS'00C01D'
p564
(dp565
g3
g4
sg5
g6
sg7
g8
sg9
S'TLS_SRP_SHA_WITH_AES_128_CBC_SHA'
p566
sg11
g20
sg13
g4
sg15
g146
sg17
g18
sg19
g20
sg21
g20
ssS'00C01F'
p567
(dp568
g3
g4
sg5
g6
sg7
g8
sg9
S'TLS_SRP_SHA_DSS_WITH_AES_128_CBC_SHA'
p569
sg11
g20
sg13
g4
sg15
g146
sg17
g18
sg19
g20
sg21
g20
ssS'000039'
p570
(dp571
g3
g4
sg5
g53
sg7
g8
sg9
S'TLS_DHE_RSA_WITH_AES_256_CBC_SHA'
p572
sg11
g20
sg13
g47
sg15
g43
sg17
g55
sg19
g20
sg21
g20
ssS'000038'
p573
(dp574
g3
g4
sg5
g53
sg7
g8
sg9
S'TLS_DHE_DSS_WITH_AES_256_CBC_SHA'
p575
sg11
g20
sg13
g63
sg15
g43
sg17
g55
sg19
g20
sg21
g20
ssS'000037'
p576
(dp577
g3
g4
sg5
g53
sg7
g8
sg9
S'TLS_DH_RSA_WITH_AES_256_CBC_SHA'
p578
sg11
g20
sg13
g47
sg15
g64
sg17
g55
sg19
g20
sg21
g20
ssS'000036'
p579
(dp580
g3
g4
sg5
g53
sg7
g8
sg9
S'TLS_DH_DSS_WITH_AES_256_CBC_SHA'
p581
sg11
g20
sg13
g63
sg15
g64
sg17
g55
sg19
g20
sg21
g20
ssS'000035'
p582
(dp583
g3
g4
sg5
g53
sg7
g8
sg9
S'TLS_RSA_WITH_AES_256_CBC_SHA'
p584
sg11
g20
sg13
g47
sg15
g47
sg17
g55
sg19
g20
sg21
g20
ssS'000034'
p585
(dp586
g3
g4
sg5
g6
sg7
g8
sg9
S'TLS_DH_Anon_WITH_AES_128_CBC_SHA'
p587
sg11
g12
sg13
g14
sg15
g64
sg17
g18
sg19
g20
sg21
g12
ssS'000033'
p588
(dp589
g3
g4
sg5
g6
sg7
g8
sg9
S'TLS_DHE_RSA_WITH_AES_128_CBC_SHA'
p590
sg11
g20
sg13
g47
sg15
g43
sg17
g18
sg19
g20
sg21
g20
ssS'000032'
p591
(dp592
g3
g4
sg5
g6
sg7
g8
sg9
S'TLS_DHE_DSS_WITH_AES_128_CBC_SHA'
p593
sg11
g20
sg13
g63
sg15
g43
sg17
g18
sg19
g20
sg21
g20
ssS'000031'
p594
(dp595
g3
g4
sg5
g6
sg7
g8
sg9
S'TLS_DH_RSA_WITH_AES_128_CBC_SHA'
p596
sg11
g20
sg13
g47
sg15
g64
sg17
g18
sg19
g20
sg21
g20
ssS'000030'
p597
(dp598
g3
g4
sg5
g6
sg7
g8
sg9
S'TLS_DH_DSS_WITH_AES_128_CBC_SHA'
p599
sg11
g20
sg13
g63
sg15
g64
sg17
g18
sg19
g20
sg21
g20
ssS'00003F'
p600
(dp601
g3
g137
sg5
g6
sg7
g8
sg9
S'TLS_DH_RSA_WITH_AES_128_CBC_SHA256'
p602
sg11
g20
sg13
g47
sg15
g64
sg17
g18
sg19
g20
sg21
g20
ssS'00003E'
p603
(dp604
g3
g137
sg5
g6
sg7
g8
sg9
S'TLS_DH_DSS_WITH_AES_128_CBC_SHA256'
p605
sg11
g20
sg13
g63
sg15
g64
sg17
g18
sg19
g20
sg21
g20
ssS'00003D'
p606
(dp607
g3
g137
sg5
g53
sg7
g8
sg9
S'TLS_RSA_WITH_AES_256_CBC_SHA256'
p608
sg11
g20
sg13
g47
sg15
g47
sg17
g55
sg19
g20
sg21
g20
ssS'00003C'
p609
(dp610
g3
g137
sg5
g6
sg7
g8
sg9
S'TLS_RSA_WITH_AES_128_CBC_SHA256'
p611
sg11
g20
sg13
g47
sg15
g47
sg17
g18
sg19
g20
sg21
g20
ssS'00003B'
p612
(dp613
g3
g137
sg5
g36
sg7
g8
sg9
S'TLS_RSA_WITH_NULL_SHA256'
p614
sg11
g36
sg13
g47
sg15
g47
sg17
g39
sg19
g36
sg21
g20
ssS'00003A'
p615
(dp616
g3
g4
sg5
g53
sg7
g8
sg9
S'TLS_DH_Anon_WITH_AES_256_CBC_SHA'
p617
sg11
g12
sg13
g14
sg15
g64
sg17
g55
sg19
g20
sg21
g12
ssS'00C025'
p618
(dp619
g3
g137
sg5
g6
sg7
g8
sg9
S'TLS_ECDH_ECDSA_WITH_AES_128_CBC_SHA256'
p620
sg11
g20
sg13
g89
sg15
g16
sg17
g18
sg19
g20
sg21
g20
ssS'00C01A'
p621
(dp622
g3
g4
sg5
g77
sg7
g8
sg9
S'TLS_SRP_SHA_WITH_3DES_EDE_CBC_SHA'
p623
sg11
g20
sg13
g4
sg15
g146
sg17
g79
sg19
g20
sg21
g20
ssS'00C027'
p624
(dp625
g3
g137
sg5
g6
sg7
g8
sg9
S'TLS_ECDHE_RSA_WITH_AES_128_CBC_SHA256'
p626
sg11
g20
sg13
g47
sg15
g68
sg17
g18
sg19
g20
sg21
g20
ssS'800001'
p627
(dp628
g3
g99
sg5
g99
sg7
g100
sg9
S'PCT_SSL_CERT_TYPE | PCT1_CERT_X509'
p629
sg11
g95
sg13
g99
sg15
g99
sg17
g99
sg19
g95
sg21
g95
ssS'00C026'
p630
(dp631
g3
g87
sg5
g53
sg7
g8
sg9
S'TLS_ECDH_ECDSA_WITH_AES_256_CBC_SHA384'
p632
sg11
g20
sg13
g89
sg15
g16
sg17
g55
sg19
g20
sg21
g20
ssS'00C021'
p633
(dp634
g3
g4
sg5
g53
sg7
g8
sg9
S'TLS_SRP_SHA_RSA_WITH_AES_256_CBC_SHA'
p635
sg11
g20
sg13
g4
sg15
g146
sg17
g55
sg19
g20
sg21
g20
ssS'00C020'
p636
(dp637
g3
g4
sg5
g53
sg7
g8
sg9
S'TLS_SRP_SHA_WITH_AES_256_CBC_SHA'
p638
sg11
g20
sg13
g4
sg15
g146
sg17
g55
sg19
g20
sg21
g20
ssS'0000B0'
p639
(dp640
g3
g137
sg5
g36
sg7
g8
sg9
S'TLS_PSK_WITH_NULL_SHA256'
p641
sg11
g36
sg13
g38
sg15
g38
sg17
g39
sg19
g36
sg21
g20
ssS'0000B1'
p642
(dp643
g3
g87
sg5
g36
sg7
g8
sg9
S'TLS_PSK_WITH_NULL_SHA384'
p644
sg11
g36
sg13
g38
sg15
g38
sg17
g39
sg19
g36
sg21
g20
ssS'0000B2'
p645
(dp646
g3
g137
sg5
g6
sg7
g8
sg9
S'TLS_DHE_PSK_WITH_AES_128_CBC_SHA256'
p647
sg11
g20
sg13
g38
sg15
g43
sg17
g18
sg19
g20
sg21
g20
ssS'0000B3'
p648
(dp649
g3
g87
sg5
g53
sg7
g8
sg9
S'TLS_DHE_PSK_WITH_AES_256_CBC_SHA384'
p650
sg11
g20
sg13
g38
sg15
g43
sg17
g55
sg19
g20
sg21
g20
ssS'0000B4'
p651
(dp652
g3
g137
sg5
g36
sg7
g8
sg9
S'TLS_DHE_PSK_WITH_NULL_SHA256'
p653
sg11
g36
sg13
g38
sg15
g43
sg17
g39
sg19
g36
sg21
g20
ssS'0000B5'
p654
(dp655
g3
g87
sg5
g36
sg7
g8
sg9
S'TLS_DHE_PSK_WITH_NULL_SHA384'
p656
sg11
g36
sg13
g38
sg15
g43
sg17
g39
sg19
g36
sg21
g20
ssS'0000B6'
p657
(dp658
g3
g137
sg5
g6
sg7
g8
sg9
S'TLS_RSA_PSK_WITH_AES_128_CBC_SHA256'
p659
sg11
g20
sg13
g38
sg15
g47
sg17
g18
sg19
g20
sg21
g20
ssS'0000B7'
p660
(dp661
g3
g87
sg5
g53
sg7
g8
sg9
S'TLS_RSA_PSK_WITH_AES_256_CBC_SHA384'
p662
sg11
g20
sg13
g38
sg15
g47
sg17
g55
sg19
g20
sg21
g20
ssS'0000B8'
p663
(dp664
g3
g137
sg5
g36
sg7
g8
sg9
S'TLS_RSA_PSK_WITH_NULL_SHA256'
p665
sg11
g36
sg13
g38
sg15
g47
sg17
g39
sg19
g36
sg21
g20
ssS'0000B9'
p666
(dp667
g3
g87
sg5
g36
sg7
g8
sg9
S'TLS_RSA_PSK_WITH_NULL_SHA384'
p668
sg11
g36
sg13
g38
sg15
g47
sg17
g39
sg19
g36
sg21
g20
ssS'00C022'
p669
(dp670
g3
g4
sg5
g53
sg7
g8
sg9
S'TLS_SRP_SHA_DSS_WITH_AES_256_CBC_SHA'
p671
sg11
g20
sg13
g4
sg15
g146
sg17
g55
sg19
g20
sg21
g20
ssS'00000F'
p672
(dp673
g3
g4
sg5
g116
sg7
g8
sg9
S'TLS_DH_RSA_WITH_DES_CBC_SHA'
p674
sg11
g95
sg13
g47
sg15
g64
sg17
g118
sg19
g95
sg21
g20
ssS'00000D'
p675
(dp676
g3
g4
sg5
g77
sg7
g8
sg9
S'TLS_DH_DSS_WITH_3DES_EDE_CBC_SHA'
p677
sg11
g20
sg13
g63
sg15
g64
sg17
g79
sg19
g20
sg21
g20
ssS'00000E'
p678
(dp679
g3
g4
sg5
g467
sg7
g8
sg9
S'TLS_DH_RSA_EXPORT_WITH_DES40_CBC_SHA'
p680
sg11
g27
sg13
g47
sg15
g64
sg17
g29
sg19
g27
sg21
g20
ssS'00000B'
p681
(dp682
g3
g4
sg5
g467
sg7
g8
sg9
S'TLS_DH_DSS_EXPORT_WITH_DES40_CBC_SHA'
p683
sg11
g27
sg13
g63
sg15
g64
sg17
g29
sg19
g27
sg21
g20
ssS'00000C'
p684
(dp685
g3
g4
sg5
g116
sg7
g8
sg9
S'TLS_DH_DSS_WITH_DES_CBC_SHA'
p686
sg11
g95
sg13
g63
sg15
g64
sg17
g118
sg19
g95
sg21
g20
ssS'00C038'
p687
(dp688
g3
g87
sg5
g53
sg7
g8
sg9
S'TLS_ECDHE_PSK_WITH_AES_256_CBC_SHA384'
p689
sg11
g20
sg13
g38
sg15
g68
sg17
g55
sg19
g20
sg21
g20
ssS'00000A'
p690
(dp691
g3
g4
sg5
g77
sg7
g8
sg9
S'TLS_RSA_WITH_3DES_EDE_CBC_SHA'
p692
sg11
g20
sg13
g47
sg15
g47
sg17
g79
sg19
g20
sg21
g20
ssS'00C036'
p693
(dp694
g3
g4
sg5
g53
sg7
g8
sg9
S'TLS_ECDHE_PSK_WITH_AES_256_CBC_SHA'
p695
sg11
g20
sg13
g38
sg15
g68
sg17
g55
sg19
g20
sg21
g20
ssS'00C037'
p696
(dp697
g3
g137
sg5
g6
sg7
g8
sg9
S'TLS_ECDHE_PSK_WITH_AES_128_CBC_SHA256'
p698
sg11
g20
sg13
g38
sg15
g68
sg17
g18
sg19
g20
sg21
g20
ssS'00C034'
p699
(dp700
g3
g4
sg5
g77
sg7
g8
sg9
S'TLS_ECDHE_PSK_WITH_3DES_EDE_CBC_SHA'
p701
sg11
g20
sg13
g38
sg15
g68
sg17
g79
sg19
g20
sg21
g20
ssS'00C035'
p702
(dp703
g3
g4
sg5
g6
sg7
g8
sg9
S'TLS_ECDHE_PSK_WITH_AES_128_CBC_SHA'
p704
sg11
g20
sg13
g38
sg15
g68
sg17
g18
sg19
g20
sg21
g20
ssS'00C032'
p705
(dp706
g3
g87
sg5
g149
sg7
g8
sg9
S'TLS_ECDH_RSA_WITH_AES_256_GCM_SHA384'
p707
sg11
g20
sg13
g47
sg15
g16
sg17
g55
sg19
g20
sg21
g20
ssS'00C033'
p708
(dp709
g3
g4
sg5
g82
sg7
g8
sg9
S'TLS_ECDHE_PSK_WITH_RC4_128_SHA'
p710
sg11
g84
sg13
g38
sg15
g68
sg17
g18
sg19
g84
sg21
g20
ssS'00C030'
p711
(dp712
g3
g87
sg5
g149
sg7
g8
sg9
S'TLS_ECDHE_RSA_WITH_AES_256_GCM_SHA384'
p713
sg11
g20
sg13
g47
sg15
g68
sg17
g55
sg19
g20
sg21
g20
ssS'00C031'
p714
(dp715
g3
g137
sg5
g138
sg7
g8
sg9
S'TLS_ECDH_RSA_WITH_AES_128_GCM_SHA256'
p716
sg11
g20
sg13
g47
sg15
g16
sg17
g18
sg19
g20
sg21
g20
ssS'020080'
p717
(dp718
g3
g24
sg5
S'RC4_128_EXPORT40'
p719
sg7
g93
sg9
S'SSL2_RC4_128_EXPORT40_WITH_MD5'
p720
sg11
g27
sg13
g47
sg15
g47
sg17
g29
sg19
g27
sg21
g95
ssS'000006'
p721
(dp722
g3
g24
sg5
g25
sg7
g8
sg9
S'TLS_RSA_EXPORT_WITH_RC2_CBC_40_MD5'
p723
sg11
g27
sg13
S'RSA_EXPORT'
p724
sg15
g724
sg17
g29
sg19
g27
sg21
g27
ssS'000007'
p725
(dp726
g3
g4
sg5
g112
sg7
g8
sg9
S'TLS_RSA_WITH_IDEA_CBC_SHA'
p727
sg11
g20
sg13
g47
sg15
g47
sg17
g18
sg19
g20
sg21
g20
ssS'000004'
p728
(dp729
g3
g24
sg5
g82
sg7
g8
sg9
S'TLS_RSA_WITH_RC4_128_MD5'
p730
sg11
g84
sg13
g47
sg15
g47
sg17
g18
sg19
g84
sg21
g20
ssS'000005'
p731
(dp732
g3
g4
sg5
g82
sg7
g8
sg9
S'TLS_RSA_WITH_RC4_128_SHA'
p733
sg11
g84
sg13
g47
sg15
g47
sg17
g18
sg19
g84
sg21
g20
ssS'000002'
p734
(dp735
g3
g4
sg5
g36
sg7
g8
sg9
S'TLS_RSA_WITH_NULL_SHA'
p736
sg11
g36
sg13
g47
sg15
g47
sg17
g39
sg19
g36
sg21
g20
ssS'000003'
p737
(dp738
g3
g24
sg5
g32
sg7
g8
sg9
S'TLS_RSA_EXPORT_WITH_RC4_40_MD5'
p739
sg11
g27
sg13
g724
sg15
g724
sg17
g29
sg19
g27
sg21
g27
ssS'000000'
p740
(dp741
g3
g36
sg5
g36
sg7
g8
sg9
S'TLS_NULL_WITH_NULL_NULL'
p742
sg11
g36
sg13
g36
sg15
g36
sg17
g39
sg19
g36
sg21
g36
ssS'000001'
p743
(dp744
g3
g24
sg5
g36
sg7
g8
sg9
S'TLS_RSA_WITH_NULL_MD5'
p745
sg11
g36
sg13
g47
sg15
g47
sg17
g39
sg19
g36
sg21
g20
ssS'00C03B'
p746
(dp747
g3
g87
sg5
g36
sg7
g8
sg9
S'TLS_ECDHE_PSK_WITH_NULL_SHA384'
p748
sg11
g36
sg13
g38
sg15
g68
sg17
g39
sg19
g36
sg21
g20
ssS'000008'
p749
(dp750
g3
g4
sg5
g467
sg7
g8
sg9
S'TLS_RSA_EXPORT_WITH_DES40_CBC_SHA'
p751
sg11
g27
sg13
g724
sg15
g724
sg17
g29
sg19
g27
sg21
g27
ssS'000009'
p752
(dp753
g3
g4
sg5
g116
sg7
g8
sg9
S'TLS_RSA_WITH_DES_CBC_SHA'
p754
sg11
g95
sg13
g47
sg15
g47
sg17
g118
sg19
g95
sg21
g20
ssS'830004'
p755
(dp756
g3
g99
sg5
g99
sg7
g100
sg9
S'PCT_SSL_CIPHER_TYPE_1ST_HALF | PCT1_CIPHER_RC4'
p757
sg11
g95
sg13
g99
sg15
g99
sg17
g99
sg19
g95
sg21
g95
ssS'00FFE1'
p758
(dp759
g3
g4
sg5
g116
sg7
g361
sg9
g366
sg11
g95
sg13
g363
sg15
g363
sg17
g118
sg19
g95
sg21
g20
ssS'00FFE0'
p760
(dp761
g3
g4
sg5
g77
sg7
g361
sg9
g362
sg11
g20
sg13
g363
sg15
g363
sg17
g79
sg19
g20
sg21
g20
ss.